target datalayout = "e-m:e-p270:32:32-p271:32:32-p272:64:64-i64:64-i128:128-f80:128-n8:16:32:64-S128"
target triple = "x86_64-pc-linux-gnu"

%struct.VuDev = type { i32, i32, ptr, ptr, %struct.VuDevInflightInfo, i32, %union.pthread_mutex_t, i32, i64, ptr, i64, i64, i8, i16, ptr, ptr, ptr, ptr, ptr, i32, i8 }
%struct.VuDevInflightInfo = type { i32, ptr, i64 }
%union.pthread_mutex_t = type { %struct.__pthread_mutex_s }
%struct.__pthread_mutex_s = type { i32, i32, i32, i32, i32, i16, i16, %struct.__pthread_internal_list }
%struct.__pthread_internal_list = type { ptr, ptr }
%struct.VhostUserMsg = type <{ i32, i32, i32, %union.anon, [8 x i32], i32, ptr }>
%union.anon = type { %struct.VhostUserMemory, [8 x i8] }
%struct.VhostUserMemory = type { i32, i32, [8 x %struct.VhostUserMemoryRegion] }
%struct.VhostUserMemoryRegion = type { i64, i64, i64, i64 }

; Function Attrs: nounwind uwtable
define dso_local void @vu_config_change_msg(ptr noundef %0) #0 {
  %2 = alloca ptr, align 8
  %3 = alloca %struct.VhostUserMsg, align 1
  store ptr %0, ptr %2, align 8
  call void @llvm.lifetime.start.p0(i64 328, ptr %3) #13
  call void @llvm.memset.p0.i64(ptr align 1 %3, i8 0, i64 328, i1 false)
  %4 = getelementptr inbounds %struct.VhostUserMsg, ptr %3, i32 0, i32 0
  store i32 2, ptr %4, align 1
  %5 = getelementptr inbounds %struct.VhostUserMsg, ptr %3, i32 0, i32 1
  store i32 1, ptr %5, align 1
  %6 = load ptr, ptr %2, align 8
  %7 = load ptr, ptr %2, align 8
  %8 = getelementptr inbounds nuw %struct.VuDev, ptr %7, i32 0, i32 7
  %9 = load i32, ptr %8, align 8
  %10 = call zeroext i1 @vu_message_write(ptr noundef %6, i32 noundef %9, ptr noundef %3)
  call void @llvm.lifetime.end.p0(i64 328, ptr %3) #13
  ret void
}