; Function Attrs: nounwind uwtable
define dso_local void @vu_config_change_msg(ptr noundef %0) local_unnamed_addr #3 {
  %2 = alloca %struct.VhostUserMsg, align 4
  call void @llvm.lifetime.start.p0(i64 328, ptr nonnull %2) #21
  %3 = getelementptr inbounds nuw i8, ptr %2, i64 8
  call void @llvm.memset.p0.i64(ptr noundef nonnull align 4 dereferenceable(328) %3, i8 0, i64 320, i1 false)
  store i32 2, ptr %2, align 4
  %4 = getelementptr inbounds nuw i8, ptr %2, i64 4
  store i32 1, ptr %4, align 4
  %5 = getelementptr inbounds nuw i8, ptr %0, i64 96
  %6 = load i32, ptr %5, align 8
  %7 = call fastcc zeroext i1 @vu_message_write(ptr noundef %0, i32 noundef %6, ptr noundef %2)
  call void @llvm.lifetime.end.p0(i64 328, ptr nonnull %2) #21
  ret void
}